; Function Attrs: nounwind uwtable
define dso_local range(i32 -1, 1) i32 @callerid_find_conn_by_inode(ptr noundef %0, i64 noundef %1) local_unnamed_addr #0 {
  %3 = alloca i64, align 8
  store i64 %1, ptr %3, align 8
  %4 = call fastcc i32 @_find_match_in_tcp_file(ptr noundef %0, ptr noundef nonnull %3, i32 noundef 2, ptr noundef nonnull @.str, ptr noundef nonnull @_match_inode)
  %5 = icmp eq i32 %4, 0
  br i1 %5, label %9, label %6

6:                                                ; preds = %2
  %7 = call fastcc i32 @_find_match_in_tcp_file(ptr noundef %0, ptr noundef nonnull %3, i32 noundef 10, ptr noundef nonnull @.str.1, ptr noundef nonnull @_match_inode)
  %8 = icmp ne i32 %7, 0
  %. = sext i1 %8 to i32
  br label %9

9:                                                ; preds = %6, %2
  %.0 = phi i32 [ 0, %2 ], [ %., %6 ]
  ret i32 %.0
}